(lp0
(S'cppflags'
p1
ccopy_reg
_reconstructor
p2
(cino.utils
SpaceList
p3
c__builtin__
list
p4
(lp5
S'-mmcu=atmega328p'
p6
aS'-DF_CPU=16000000L'
p7
aS'-DARDUINO=22'
p8
aS'-I/Applications/Arduino.app/Contents/Resources/Java/hardware/arduino/cores/arduino'
p9
aS'-ffunction-sections'
p10
aS'-fdata-sections'
p11
aS'-g'
p12
aS'-Os'
p13
aS'-w'
p14
aS'-I/Applications/Arduino.app/Contents/Resources/Java/libraries/Servo'
p15
aS'-I/Applications/Arduino.app/Contents/Resources/Java/hardware/arduino/cores/arduino'
p16
atp17
Rp18
tp19
a(S'cc'
p20
S'/Applications/Arduino.app/Contents/Resources/Java/hardware/tools/avr/bin/avr-gcc'
p21
tp22
a(S'arduino_libraries_dir'
p23
S'/Applications/Arduino.app/Contents/Resources/Java/libraries'
p24
tp25
a(S'avrdude'
p26
S'/Applications/Arduino.app/Contents/Resources/Java/hardware/tools/avr/bin/avrdude'
p27
tp28
a(S'ar'
p29
S'/Applications/Arduino.app/Contents/Resources/Java/hardware/tools/avr/bin/avr-ar'
p30
tp31
a(S'names'
p32
(dp33
S'cpp'
p34
S'%s.cpp'
p35
sS'obj'
p36
S'%s.o'
p37
sS'lib'
p38
S'lib%s.a'
p39
sS'deps'
p40
S'%s.d'
p41
stp42
a(S'ldflags'
p43
g2
(g3
g4
(lp44
g6
aS'-Wl,-Os'
p45
aS'-Wl,--gc-sections'
p46
atp47
Rp48
tp49
a(S'arduino_lib_version'
p50
g2
(cino.environment
Version
p51
c__builtin__
tuple
p52
(I0
I22
I0
tp53
tp54
Rp55
tp56
a(S'objcopy'
p57
S'/Applications/Arduino.app/Contents/Resources/Java/hardware/tools/avr/bin/avr-objcopy'
p58
tp59
a(S'board_models'
p60
cino.environment
BoardModels
p61
((lp62
(lp63
S'uno'
p64
a(dp65
S'build'
p66
(dp67
S'core'
p68
S'arduino'
p69
sS'mcu'
p70
S'atmega328p'
p71
sS'f_cpu'
p72
S'16000000L'
p73
ssS'bootloader'
p74
(dp75
S'extended_fuses'
p76
S'0x05'
p77
sS'high_fuses'
p78
S'0xde'
p79
sS'low_fuses'
p80
S'0xff'
p81
sS'lock_bits'
p82
S'0x0F'
p83
sS'file'
p84
S'optiboot_atmega328.hex'
p85
sS'path'
p86
S'optiboot'
p87
sS'unlock_bits'
p88
S'0x3F'
p89
ssS'upload'
p90
(dp91
S'protocol'
p92
S'stk500'
p93
sS'maximum_size'
p94
S'32256'
p95
sS'speed'
p96
S'115200'
p97
ssS'name'
p98
S'Arduino Uno'
p99
saa(lp100
S'atmega328'
p101
a(dp102
S'build'
p103
(dp104
S'core'
p105
S'arduino'
p106
sS'mcu'
p107
S'atmega328p'
p108
sS'f_cpu'
p109
S'16000000L'
p110
ssS'bootloader'
p111
(dp112
S'extended_fuses'
p113
S'0x05'
p114
sS'high_fuses'
p115
S'0xDA'
p116
sS'low_fuses'
p117
S'0xFF'
p118
sS'lock_bits'
p119
S'0x0F'
p120
sS'file'
p121
S'ATmegaBOOT_168_atmega328.hex'
p122
sS'path'
p123
S'atmega'
p124
sS'unlock_bits'
p125
S'0x3F'
p126
ssS'upload'
p127
(dp128
S'protocol'
p129
S'stk500'
p130
sS'maximum_size'
p131
S'30720'
p132
sS'speed'
p133
S'57600'
p134
ssS'name'
p135
S'Arduino Duemilanove or Nano w/ ATmega328'
p136
saa(lp137
S'diecimila'
p138
a(dp139
S'build'
p140
(dp141
S'core'
p142
S'arduino'
p143
sS'mcu'
p144
S'atmega168'
p145
sS'f_cpu'
p146
S'16000000L'
p147
ssS'bootloader'
p148
(dp149
S'extended_fuses'
p150
S'0x00'
p151
sS'high_fuses'
p152
S'0xdd'
p153
sS'low_fuses'
p154
S'0xff'
p155
sS'lock_bits'
p156
S'0x0F'
p157
sS'file'
p158
S'ATmegaBOOT_168_diecimila.hex'
p159
sS'path'
p160
S'atmega'
p161
sS'unlock_bits'
p162
S'0x3F'
p163
ssS'upload'
p164
(dp165
S'protocol'
p166
S'stk500'
p167
sS'maximum_size'
p168
S'14336'
p169
sS'speed'
p170
S'19200'
p171
ssS'name'
p172
S'Arduino Diecimila, Duemilanove, or Nano w/ ATmega168'
p173
saa(lp174
S'mega2560'
p175
a(dp176
S'build'
p177
(dp178
S'core'
p179
S'arduino'
p180
sS'mcu'
p181
S'atmega2560'
p182
sS'f_cpu'
p183
S'16000000L'
p184
ssS'bootloader'
p185
(dp186
S'extended_fuses'
p187
S'0xFD'
p188
sS'high_fuses'
p189
S'0xD8'
p190
sS'low_fuses'
p191
S'0xFF'
p192
sS'lock_bits'
p193
S'0x0F'
p194
sS'file'
p195
S'stk500boot_v2_mega2560.hex'
p196
sS'path'
p197
S'stk500v2'
p198
sS'unlock_bits'
p199
S'0x3F'
p200
ssS'upload'
p201
(dp202
S'protocol'
p203
S'stk500v2'
p204
sS'maximum_size'
p205
S'258048'
p206
sS'speed'
p207
S'115200'
p208
ssS'name'
p209
S'Arduino Mega 2560'
p210
saa(lp211
S'mega'
p212
a(dp213
S'build'
p214
(dp215
S'core'
p216
S'arduino'
p217
sS'mcu'
p218
S'atmega1280'
p219
sS'f_cpu'
p220
S'16000000L'
p221
ssS'bootloader'
p222
(dp223
S'extended_fuses'
p224
S'0xF5'
p225
sS'high_fuses'
p226
S'0xDA'
p227
sS'low_fuses'
p228
S'0xFF'
p229
sS'lock_bits'
p230
S'0x0F'
p231
sS'file'
p232
S'ATmegaBOOT_168_atmega1280.hex'
p233
sS'path'
p234
S'atmega'
p235
sS'unlock_bits'
p236
S'0x3F'
p237
ssS'upload'
p238
(dp239
S'protocol'
p240
S'stk500'
p241
sS'maximum_size'
p242
S'126976'
p243
sS'speed'
p244
S'57600'
p245
ssS'name'
p246
S'Arduino Mega (ATmega1280)'
p247
saa(lp248
S'mini'
p249
a(dp250
S'build'
p251
(dp252
S'core'
p253
S'arduino'
p254
sS'mcu'
p255
S'atmega168'
p256
sS'f_cpu'
p257
S'16000000L'
p258
ssS'bootloader'
p259
(dp260
S'extended_fuses'
p261
S'0x00'
p262
sS'high_fuses'
p263
S'0xdd'
p264
sS'low_fuses'
p265
S'0xff'
p266
sS'lock_bits'
p267
S'0x0F'
p268
sS'file'
p269
S'ATmegaBOOT_168_ng.hex'
p270
sS'path'
p271
S'atmega'
p272
sS'unlock_bits'
p273
S'0x3F'
p274
ssS'upload'
p275
(dp276
S'protocol'
p277
S'stk500'
p278
sS'maximum_size'
p279
S'14336'
p280
sS'speed'
p281
S'19200'
p282
ssS'name'
p283
S'Arduino Mini'
p284
saa(lp285
S'fio'
p286
a(dp287
S'build'
p288
(dp289
S'core'
p290
S'arduino:arduino'
p291
sS'mcu'
p292
S'atmega328p'
p293
sS'f_cpu'
p294
S'8000000L'
p295
ssS'bootloader'
p296
(dp297
S'extended_fuses'
p298
S'0x05'
p299
sS'high_fuses'
p300
S'0xDA'
p301
sS'low_fuses'
p302
S'0xFF'
p303
sS'lock_bits'
p304
S'0x0F'
p305
sS'file'
p306
S'ATmegaBOOT_168_atmega328_pro_8MHz.hex'
p307
sS'path'
p308
S'arduino:atmega'
p309
sS'unlock_bits'
p310
S'0x3F'
p311
ssS'upload'
p312
(dp313
S'protocol'
p314
S'stk500'
p315
sS'maximum_size'
p316
S'30720'
p317
sS'speed'
p318
S'57600'
p319
ssS'name'
p320
S'Arduino Fio'
p321
saa(lp322
S'bt328'
p323
a(dp324
S'build'
p325
(dp326
S'core'
p327
S'arduino'
p328
sS'mcu'
p329
S'atmega328p'
p330
sS'f_cpu'
p331
S'16000000L'
p332
ssS'bootloader'
p333
(dp334
S'extended_fuses'
p335
S'0x05'
p336
sS'high_fuses'
p337
S'0xd8'
p338
sS'low_fuses'
p339
S'0xff'
p340
sS'lock_bits'
p341
S'0x0F'
p342
sS'file'
p343
S'ATmegaBOOT_168_atmega328_bt.hex'
p344
sS'path'
p345
S'bt'
p346
sS'unlock_bits'
p347
S'0x3F'
p348
ssS'upload'
p349
(dp350
S'protocol'
p351
S'stk500'
p352
sS'maximum_size'
p353
S'28672'
p354
sS'speed'
p355
S'19200'
p356
sS'disable_flushing'
p357
S'true'
p358
ssS'name'
p359
S'Arduino BT w/ ATmega328'
p360
saa(lp361
S'bt'
p362
a(dp363
S'build'
p364
(dp365
S'core'
p366
S'arduino'
p367
sS'mcu'
p368
S'atmega168'
p369
sS'f_cpu'
p370
S'16000000L'
p371
ssS'bootloader'
p372
(dp373
S'extended_fuses'
p374
S'0x00'
p375
sS'high_fuses'
p376
S'0xdd'
p377
sS'low_fuses'
p378
S'0xff'
p379
sS'lock_bits'
p380
S'0x0F'
p381
sS'file'
p382
S'ATmegaBOOT_168.hex'
p383
sS'path'
p384
S'bt'
p385
sS'unlock_bits'
p386
S'0x3F'
p387
ssS'upload'
p388
(dp389
S'protocol'
p390
S'stk500'
p391
sS'maximum_size'
p392
S'14336'
p393
sS'speed'
p394
S'19200'
p395
sS'disable_flushing'
p396
S'true'
p397
ssS'name'
p398
S'Arduino BT w/ ATmega168'
p399
saa(lp400
S'lilypad328'
p401
a(dp402
S'build'
p403
(dp404
S'core'
p405
S'arduino'
p406
sS'mcu'
p407
S'atmega328p'
p408
sS'f_cpu'
p409
S'8000000L'
p410
ssS'bootloader'
p411
(dp412
S'extended_fuses'
p413
S'0x05'
p414
sS'high_fuses'
p415
S'0xDA'
p416
sS'low_fuses'
p417
S'0xFF'
p418
sS'lock_bits'
p419
S'0x0F'
p420
sS'file'
p421
S'ATmegaBOOT_168_atmega328_pro_8MHz.hex'
p422
sS'path'
p423
S'atmega'
p424
sS'unlock_bits'
p425
S'0x3F'
p426
ssS'upload'
p427
(dp428
S'protocol'
p429
S'stk500'
p430
sS'maximum_size'
p431
S'30720'
p432
sS'speed'
p433
S'57600'
p434
ssS'name'
p435
S'LilyPad Arduino w/ ATmega328'
p436
saa(lp437
S'lilypad'
p438
a(dp439
S'build'
p440
(dp441
S'core'
p442
S'arduino'
p443
sS'mcu'
p444
S'atmega168'
p445
sS'f_cpu'
p446
S'8000000L'
p447
ssS'bootloader'
p448
(dp449
S'extended_fuses'
p450
S'0x00'
p451
sS'high_fuses'
p452
S'0xdd'
p453
sS'low_fuses'
p454
S'0xe2'
p455
sS'lock_bits'
p456
S'0x0F'
p457
sS'file'
p458
S'LilyPadBOOT_168.hex'
p459
sS'path'
p460
S'lilypad'
p461
sS'unlock_bits'
p462
S'0x3F'
p463
ssS'upload'
p464
(dp465
S'protocol'
p466
S'stk500'
p467
sS'maximum_size'
p468
S'14336'
p469
sS'speed'
p470
S'19200'
p471
ssS'name'
p472
S'LilyPad Arduino w/ ATmega168'
p473
saa(lp474
S'pro5v328'
p475
a(dp476
S'build'
p477
(dp478
S'core'
p479
S'arduino'
p480
sS'mcu'
p481
S'atmega328p'
p482
sS'f_cpu'
p483
S'16000000L'
p484
ssS'bootloader'
p485
(dp486
S'extended_fuses'
p487
S'0x05'
p488
sS'high_fuses'
p489
S'0xDA'
p490
sS'low_fuses'
p491
S'0xFF'
p492
sS'lock_bits'
p493
S'0x0F'
p494
sS'file'
p495
S'ATmegaBOOT_168_atmega328.hex'
p496
sS'path'
p497
S'atmega'
p498
sS'unlock_bits'
p499
S'0x3F'
p500
ssS'upload'
p501
(dp502
S'protocol'
p503
S'stk500'
p504
sS'maximum_size'
p505
S'30720'
p506
sS'speed'
p507
S'57600'
p508
ssS'name'
p509
S'Arduino Pro or Pro Mini (5V, 16 MHz) w/ ATmega328'
p510
saa(lp511
S'pro5v'
p512
a(dp513
S'build'
p514
(dp515
S'core'
p516
S'arduino'
p517
sS'mcu'
p518
S'atmega168'
p519
sS'f_cpu'
p520
S'16000000L'
p521
ssS'bootloader'
p522
(dp523
S'extended_fuses'
p524
S'0x00'
p525
sS'high_fuses'
p526
S'0xdd'
p527
sS'low_fuses'
p528
S'0xff'
p529
sS'lock_bits'
p530
S'0x0F'
p531
sS'file'
p532
S'ATmegaBOOT_168_diecimila.hex'
p533
sS'path'
p534
S'atmega'
p535
sS'unlock_bits'
p536
S'0x3F'
p537
ssS'upload'
p538
(dp539
S'protocol'
p540
S'stk500'
p541
sS'maximum_size'
p542
S'14336'
p543
sS'speed'
p544
S'19200'
p545
ssS'name'
p546
S'Arduino Pro or Pro Mini (5V, 16 MHz) w/ ATmega168'
p547
saa(lp548
S'pro328'
p549
a(dp550
S'build'
p551
(dp552
S'core'
p553
S'arduino'
p554
sS'mcu'
p555
S'atmega328p'
p556
sS'f_cpu'
p557
S'8000000L'
p558
ssS'bootloader'
p559
(dp560
S'extended_fuses'
p561
S'0x05'
p562
sS'high_fuses'
p563
S'0xDA'
p564
sS'low_fuses'
p565
S'0xFF'
p566
sS'lock_bits'
p567
S'0x0F'
p568
sS'file'
p569
S'ATmegaBOOT_168_atmega328_pro_8MHz.hex'
p570
sS'path'
p571
S'atmega'
p572
sS'unlock_bits'
p573
S'0x3F'
p574
ssS'upload'
p575
(dp576
S'protocol'
p577
S'stk500'
p578
sS'maximum_size'
p579
S'30720'
p580
sS'speed'
p581
S'57600'
p582
ssS'name'
p583
S'Arduino Pro or Pro Mini (3.3V, 8 MHz) w/ ATmega328'
p584
saa(lp585
S'pro'
p586
a(dp587
S'build'
p588
(dp589
S'core'
p590
S'arduino'
p591
sS'mcu'
p592
S'atmega168'
p593
sS'f_cpu'
p594
S'8000000L'
p595
ssS'bootloader'
p596
(dp597
S'extended_fuses'
p598
S'0x00'
p599
sS'high_fuses'
p600
S'0xdd'
p601
sS'low_fuses'
p602
S'0xc6'
p603
sS'lock_bits'
p604
S'0x0F'
p605
sS'file'
p606
S'ATmegaBOOT_168_pro_8MHz.hex'
p607
sS'path'
p608
S'atmega'
p609
sS'unlock_bits'
p610
S'0x3F'
p611
ssS'upload'
p612
(dp613
S'protocol'
p614
S'stk500'
p615
sS'maximum_size'
p616
S'14336'
p617
sS'speed'
p618
S'19200'
p619
ssS'name'
p620
S'Arduino Pro or Pro Mini (3.3V, 8 MHz) w/ ATmega168'
p621
saa(lp622
S'atmega168'
p623
a(dp624
S'build'
p625
(dp626
S'core'
p627
S'arduino'
p628
sS'mcu'
p629
S'atmega168'
p630
sS'f_cpu'
p631
S'16000000L'
p632
ssS'bootloader'
p633
(dp634
S'extended_fuses'
p635
S'0x00'
p636
sS'high_fuses'
p637
S'0xdd'
p638
sS'low_fuses'
p639
S'0xff'
p640
sS'lock_bits'
p641
S'0x0F'
p642
sS'file'
p643
S'ATmegaBOOT_168_ng.hex'
p644
sS'path'
p645
S'atmega'
p646
sS'unlock_bits'
p647
S'0x3F'
p648
ssS'upload'
p649
(dp650
S'protocol'
p651
S'stk500'
p652
sS'maximum_size'
p653
S'14336'
p654
sS'speed'
p655
S'19200'
p656
ssS'name'
p657
S'Arduino NG or older w/ ATmega168'
p658
saa(lp659
S'atmega8'
p660
a(dp661
S'build'
p662
(dp663
S'core'
p664
S'arduino'
p665
sS'mcu'
p666
S'atmega8'
p667
sS'f_cpu'
p668
S'16000000L'
p669
ssS'bootloader'
p670
(dp671
S'high_fuses'
p672
S'0xca'
p673
sS'low_fuses'
p674
S'0xdf'
p675
sS'lock_bits'
p676
S'0x0F'
p677
sS'file'
p678
S'ATmegaBOOT.hex'
p679
sS'path'
p680
S'atmega8'
p681
sS'unlock_bits'
p682
S'0x3F'
p683
ssS'upload'
p684
(dp685
S'protocol'
p686
S'stk500'
p687
sS'maximum_size'
p688
S'7168'
p689
sS'speed'
p690
S'19200'
p691
ssS'name'
p692
S'Arduino NG or older w/ ATmega8'
p693
saatp694
Rp695
(dp696
S'default'
p697
S'uno'
p698
sbtp699
a(S'used_libs'
p700
(lp701
S'/Applications/Arduino.app/Contents/Resources/Java/libraries/Servo'
p702
aS'/Applications/Arduino.app/Contents/Resources/Java/hardware/arduino/cores/arduino'
p703
atp704
a(S'make'
p705
S'/Applications/Arduino.app/Contents/Resources/Java/hardware/tools/avr/bin/make'
p706
tp707
a(S'build_dir'
p708
S'.build/uno'
p709
tp710
a(S'cxx'
p711
S'/Applications/Arduino.app/Contents/Resources/Java/hardware/tools/avr/bin/avr-g++'
p712
tp713
a(S'cflags'
p714
g2
(g3
g4
(lp715
tp716
Rp717
tp718
a(S'cxxflags'
p719
g2
(g3
g4
(lp720
S'-fno-exceptions'
p721
atp722
Rp723
tp724
a(S'stty'
p725
S'/bin/stty'
p726
tp727
a(S'version.txt'
p728
S'/Applications/Arduino.app/Contents/Resources/Java/lib/version.txt'
p729
tp730
a(S'arduino_core_dir'
p731
g703
tp732
a(S'boards.txt'
p733
S'/Applications/Arduino.app/Contents/Resources/Java/hardware/arduino/boards.txt'
p734
tp735
a(S'avrdude.conf'
p736
S'/Applications/Arduino.app/Contents/Resources/Java/hardware/tools/avr/etc/avrdude.conf'
p737
tp738
a(S'deps'
p739
g2
(g3
g4
(lp740
S'.build/uno/src/dependencies.d'
p741
aS'.build/uno/arduino/dependencies.d'
p742
aS'.build/uno/Servo/dependencies.d'
p743
atp744
Rp745
tp746
a.